; Function Attrs: mustprogress uwtable
define internal fastcc noundef nonnull ptr @_ZNSt8_Rb_treeINSt7__cxx1112basic_stringIcSt11char_traitsIcESaIcEEESt4pairIKS5_N12_GLOBAL__N_111CycleStatusEESt10_Select1stISA_ESt4lessIS5_ESaISA_EE13_M_clone_nodeILb0ENSG_11_Alloc_nodeEEEPSt13_Rb_tree_nodeISA_ESL_RT0_(ptr noundef %0) unnamed_addr #3 align 2 personality ptr @__gxx_personality_v0 {
  %2 = getelementptr inbounds i8, ptr %0, i64 32
  %3 = tail call noalias noundef nonnull dereferenceable(72) ptr @_Znwm(i64 noundef 72) #24
  %4 = getelementptr inbounds i8, ptr %3, i64 32
  invoke void @_ZNSt7__cxx1112basic_stringIcSt11char_traitsIcESaIcEEC1ERKS4_(ptr noundef nonnull align 8 dereferenceable(32) %4, ptr noundef nonnull align 8 dereferenceable(32) %2)
          to label %_ZNKSt8_Rb_treeINSt7__cxx1112basic_stringIcSt11char_traitsIcESaIcEEESt4pairIKS5_N12_GLOBAL__N_111CycleStatusEESt10_Select1stISA_ESt4lessIS5_ESaISA_EE11_Alloc_nodeclIRKSA_EEPSt13_Rb_tree_nodeISA_EOT_.exit unwind label %5

5:                                                ; preds = %1
  %6 = landingpad { ptr, i32 }
          catch ptr null
  %7 = extractvalue { ptr, i32 } %6, 0
  %8 = tail call ptr @__cxa_begin_catch(ptr %7) #20
  tail call void @_ZdlPv(ptr noundef nonnull %3) #21
  invoke void @__cxa_rethrow() #25
          to label %15 unwind label %9

9:                                                ; preds = %5
  %10 = landingpad { ptr, i32 }
          cleanup
  invoke void @__cxa_end_catch()
          to label %11 unwind label %12

11:                                               ; preds = %9
  resume { ptr, i32 } %10

12:                                               ; preds = %9
  %13 = landingpad { ptr, i32 }
          catch ptr null
  %14 = extractvalue { ptr, i32 } %13, 0
  tail call void @__clang_call_terminate(ptr %14) #23
  unreachable

15:                                               ; preds = %5
  unreachable

_ZNKSt8_Rb_treeINSt7__cxx1112basic_stringIcSt11char_traitsIcESaIcEEESt4pairIKS5_N12_GLOBAL__N_111CycleStatusEESt10_Select1stISA_ESt4lessIS5_ESaISA_EE11_Alloc_nodeclIRKSA_EEPSt13_Rb_tree_nodeISA_EOT_.exit: ; preds = %1
  %16 = getelementptr inbounds i8, ptr %3, i64 64
  %17 = getelementptr inbounds i8, ptr %0, i64 64
  %18 = load i32, ptr %17, align 8
  store i32 %18, ptr %16, align 8
  %19 = load i32, ptr %0, align 8
  store i32 %19, ptr %3, align 8
  %20 = getelementptr inbounds i8, ptr %3, i64 16
  tail call void @llvm.memset.p0.i64(ptr noundef nonnull align 8 dereferenceable(16) %20, i8 0, i64 16, i1 false)
  ret ptr %3
}